; Function Attrs: nounwind uwtable
define i32 @wc_HKDF_Extract(i32 noundef %type, ptr noundef %salt, i32 noundef %saltSz, ptr noundef %inKey, i32 noundef %inKeySz, ptr noundef %out) local_unnamed_addr #1 {
entry:
  %tmp.i = alloca [64 x i8], align 16
  %myHmac.i = alloca [1 x %struct.Hmac], align 16
  call void @llvm.lifetime.start.p0(i64 64, ptr nonnull %tmp.i)
  call void @llvm.lifetime.start.p0(i64 784, ptr nonnull %myHmac.i)
  %switch.tableidx = add i32 %type, -3
  %0 = icmp ult i32 %switch.tableidx, 11
  br i1 %0, label %switch.hole_check, label %wc_HKDF_Extract_ex.exit

switch.hole_check:                                ; preds = %entry
  %switch.maskindex = trunc nuw i32 %switch.tableidx to i16
  %switch.shifted = lshr i16 1983, %switch.maskindex
  %switch.lobit = trunc i16 %switch.shifted to i1
  br i1 %switch.lobit, label %switch.lookup, label %wc_HKDF_Extract_ex.exit

switch.lookup:                                    ; preds = %switch.hole_check
  %cmp1.i = icmp eq ptr %salt, null
  br i1 %cmp1.i, label %if.then2.i, label %if.then9.i

if.then2.i:                                       ; preds = %switch.lookup
  %1 = zext nneg i32 %switch.tableidx to i64
  %switch.gep = getelementptr inbounds nuw [11 x i32], ptr @switch.table.wc_HKDF_Expand_ex, i64 0, i64 %1
  %switch.load = load i32, ptr %switch.gep, align 4
  %conv.i = zext nneg i32 %switch.load to i64
  call void @llvm.memset.p0.i64(ptr noundef nonnull align 16 dereferenceable(1) %tmp.i, i8 0, i64 %conv.i, i1 false)
  br label %if.then9.i

if.then9.i:                                       ; preds = %if.then2.i, %switch.lookup
  %saltSz.addr.0.i = phi i32 [ %switch.load, %if.then2.i ], [ %saltSz, %switch.lookup ]
  %localSalt.0.i = phi ptr [ %tmp.i, %if.then2.i ], [ %salt, %switch.lookup ]
  call void @llvm.memset.p0.i64(ptr noundef nonnull align 16 dereferenceable(784) %myHmac.i, i8 0, i64 784, i1 false)
  %call11.i = call i32 @wc_HmacSetKey(ptr noundef nonnull %myHmac.i, i32 noundef %type, ptr noundef nonnull %localSalt.0.i, i32 noundef %saltSz.addr.0.i)
  %cmp12.i = icmp eq i32 %call11.i, 0
  br i1 %cmp12.i, label %if.end17.i, label %if.end23.i

if.end17.i:                                       ; preds = %if.then9.i
  %call16.i = call i32 @wc_HmacUpdate(ptr noundef nonnull %myHmac.i, ptr noundef %inKey, i32 noundef %inKeySz)
  %cmp18.i = icmp eq i32 %call16.i, 0
  br i1 %cmp18.i, label %if.then20.i, label %if.end23.i

if.then20.i:                                      ; preds = %if.end17.i
  %call22.i = call i32 @wc_HmacFinal(ptr noundef nonnull %myHmac.i, ptr noundef %out)
  br label %if.end23.i

if.end23.i:                                       ; preds = %if.then20.i, %if.end17.i, %if.then9.i
  %ret.2.i = phi i32 [ %call22.i, %if.then20.i ], [ %call16.i, %if.end17.i ], [ %call11.i, %if.then9.i ]
  call void @wc_HmacFree(ptr noundef nonnull %myHmac.i)
  br label %wc_HKDF_Extract_ex.exit

wc_HKDF_Extract_ex.exit:                          ; preds = %switch.hole_check, %entry, %if.end23.i
  %retval.0.i = phi i32 [ %ret.2.i, %if.end23.i ], [ -173, %entry ], [ -173, %switch.hole_check ]
  call void @llvm.lifetime.end.p0(i64 64, ptr nonnull %tmp.i)
  call void @llvm.lifetime.end.p0(i64 784, ptr nonnull %myHmac.i)
  ret i32 %retval.0.i
}